target datalayout = "e-m:e-p270:32:32-p271:32:32-p272:64:64-i64:64-i128:128-f80:128-n8:16:32:64-S128"
target triple = "x86_64-pc-linux-gnu"

%struct.stat = type { i64, i64, i64, i32, i32, i32, i32, i64, i64, i64, i64, %struct.timespec, %struct.timespec, %struct.timespec, [3 x i64] }
%struct.timespec = type { i64, i64 }

@.str.26 = private unnamed_addr constant [18 x i8] c"could not stat %s\00", align 1

; Function Attrs: nounwind uwtable
define dso_local i32 @is_empty_or_missing_file(ptr noundef %0) #0 {
  %2 = alloca i32, align 4
  %3 = alloca ptr, align 8
  %4 = alloca %struct.stat, align 8
  %5 = alloca i32, align 4
  store ptr %0, ptr %3, align 8, !tbaa !4
  call void @llvm.lifetime.start.p0(i64 144, ptr %4) #13
  %6 = load ptr, ptr %3, align 8, !tbaa !4
  %7 = call i32 @stat64(ptr noundef %6, ptr noundef %4) #13
  %8 = icmp slt i32 %7, 0
  br i1 %8, label %9, label %17

9:                                                ; preds = %1
  %10 = call ptr @__errno_location() #19
  %11 = load i32, ptr %10, align 4, !tbaa !11
  %12 = icmp eq i32 %11, 2
  br i1 %12, label %13, label %14

13:                                               ; preds = %9
  store i32 1, ptr %2, align 4
  store i32 1, ptr %5, align 4
  br label %23

14:                                               ; preds = %9
  %15 = call ptr @_(ptr noundef @.str.26)
  %16 = load ptr, ptr %3, align 8, !tbaa !4
  call void (ptr, ...) @die_errno(ptr noundef %15, ptr noundef %16) #14
  unreachable

17:                                               ; preds = %1
  %18 = getelementptr inbounds nuw %struct.stat, ptr %4, i32 0, i32 8
  %19 = load i64, ptr %18, align 8, !tbaa !35
  %20 = icmp ne i64 %19, 0
  %21 = xor i1 %20, true
  %22 = zext i1 %21 to i32
  store i32 %22, ptr %2, align 4
  store i32 1, ptr %5, align 4
  br label %23

23:                                               ; preds = %17, %13
  call void @llvm.lifetime.end.p0(i64 144, ptr %4) #13
  %24 = load i32, ptr %2, align 4
  ret i32 %24
}