; Function Attrs: nounwind uwtable
define dso_local range(i32 0, 2) i32 @is_empty_or_missing_file(ptr noundef %0) local_unnamed_addr #0 {
  %2 = alloca %struct.stat, align 8
  call void @llvm.lifetime.start.p0(i64 144, ptr nonnull %2) #20
  %3 = call i32 @stat64(ptr noundef %0, ptr noundef nonnull %2) #20
  %4 = icmp slt i32 %3, 0
  br i1 %4, label %5, label %11

5:                                                ; preds = %1
  %6 = tail call ptr @__errno_location() #26
  %7 = load i32, ptr %6, align 4, !tbaa !9
  %8 = icmp eq i32 %7, 2
  br i1 %8, label %15, label %9

9:                                                ; preds = %5
  %10 = tail call fastcc ptr @_(ptr noundef nonnull @.str.26)
  tail call void (ptr, ...) @die_errno(ptr noundef %10, ptr noundef %0) #21
  unreachable

11:                                               ; preds = %1
  %12 = getelementptr inbounds nuw i8, ptr %2, i64 48
  %13 = load i64, ptr %12, align 8, !tbaa !29
  %.not = icmp eq i64 %13, 0
  %14 = zext i1 %.not to i32
  br label %15

15:                                               ; preds = %5, %11
  %.0 = phi i32 [ %14, %11 ], [ 1, %5 ]
  call void @llvm.lifetime.end.p0(i64 144, ptr nonnull %2) #20
  ret i32 %.0
}